target datalayout = "e-m:e-p270:32:32-p271:32:32-p272:64:64-i64:64-i128:128-f80:128-n8:16:32:64-S128"
target triple = "x86_64-pc-linux-gnu"

%struct.plugin_context_t = type { ptr, ptr, ptr }

@.str.10 = private unnamed_addr constant [5 x i8] c"fini\00", align 1

; Function Attrs: nounwind uwtable
define dso_local void @plugin_unload(ptr noundef %0) #0 {
  %2 = alloca ptr, align 8
  %3 = alloca ptr, align 8
  store ptr %0, ptr %2, align 8
  call void @llvm.lifetime.start.p0(i64 8, ptr %3) #7
  %4 = load ptr, ptr %2, align 8
  %5 = icmp ne ptr %4, null
  br i1 %5, label %6, label %15

6:                                                ; preds = %1
  %7 = load ptr, ptr %2, align 8
  %8 = call ptr @dlsym(ptr noundef %7, ptr noundef @.str.10) #7
  store ptr %8, ptr %3, align 8
  %9 = icmp ne ptr %8, null
  br i1 %9, label %10, label %12

10:                                               ; preds = %6
  %11 = load ptr, ptr %3, align 8
  call void %11()
  br label %12

12:                                               ; preds = %10, %6
  %13 = load ptr, ptr %2, align 8
  %14 = call i32 @dlclose(ptr noundef %13) #7
  br label %15

15:                                               ; preds = %12, %1
  call void @llvm.lifetime.end.p0(i64 8, ptr %3) #7
  ret void
}

; Function Attrs: nounwind uwtable
define dso_local i32 @plugin_context_destroy(ptr noundef %0) #0 {
  %2 = alloca ptr, align 8
  %3 = alloca i32, align 4
  store ptr %0, ptr %2, align 8
  call void @llvm.lifetime.start.p0(i64 4, ptr %3) #7
  store i32 0, ptr %3, align 4
  %4 = load ptr, ptr %2, align 8
  %5 = getelementptr inbounds nuw %struct.plugin_context_t, ptr %4, i32 0, i32 1
  %6 = load ptr, ptr %5, align 8
  %7 = icmp ne ptr %6, null
  br i1 %7, label %8, label %16

8:                                                ; preds = %1
  %9 = load ptr, ptr %2, align 8
  %10 = getelementptr inbounds nuw %struct.plugin_context_t, ptr %9, i32 0, i32 1
  %11 = load ptr, ptr %10, align 8
  %12 = call i32 @plugrack_destroy(ptr noundef %11)
  %13 = icmp ne i32 %12, 0
  br i1 %13, label %14, label %15

14:                                               ; preds = %8
  store i32 -1, ptr %3, align 4
  br label %15

15:                                               ; preds = %14, %8
  br label %20

16:                                               ; preds = %1
  %17 = load ptr, ptr %2, align 8
  %18 = getelementptr inbounds nuw %struct.plugin_context_t, ptr %17, i32 0, i32 0
  %19 = load ptr, ptr %18, align 8
  call void @plugin_unload(ptr noundef %19)
  br label %20

20:                                               ; preds = %16, %15
  %21 = load ptr, ptr %2, align 8
  %22 = getelementptr inbounds nuw %struct.plugin_context_t, ptr %21, i32 0, i32 2
  call void @slurm_xfree(ptr noundef %22)
  call void @slurm_xfree(ptr noundef %2)
  %23 = load i32, ptr %3, align 4
  call void @llvm.lifetime.end.p0(i64 4, ptr %3) #7
  ret i32 %23
}