; Function Attrs: nounwind uwtable
define dso_local range(i32 -1, 1) i32 @plugin_context_destroy(ptr noundef %0) local_unnamed_addr #0 {
  %2 = alloca ptr, align 8
  store ptr %0, ptr %2, align 8
  %3 = getelementptr inbounds nuw i8, ptr %0, i64 8
  %4 = load ptr, ptr %3, align 8
  %.not = icmp eq ptr %4, null
  br i1 %.not, label %7, label %5

5:                                                ; preds = %1
  %6 = tail call i32 @plugrack_destroy(ptr noundef nonnull %4) #10
  %.not2 = icmp ne i32 %6, 0
  %spec.select = sext i1 %.not2 to i32
  br label %plugin_unload.exit

7:                                                ; preds = %1
  %8 = load ptr, ptr %0, align 8
  %.not.i = icmp eq ptr %8, null
  br i1 %.not.i, label %plugin_unload.exit, label %9

9:                                                ; preds = %7
  %10 = tail call ptr @dlsym(ptr noundef nonnull %8, ptr noundef nonnull @.str.10) #10
  %.not5.i = icmp eq ptr %10, null
  br i1 %.not5.i, label %12, label %11

11:                                               ; preds = %9
  tail call void %10() #10
  br label %12

12:                                               ; preds = %11, %9
  %13 = tail call i32 @dlclose(ptr noundef nonnull %8) #10
  br label %plugin_unload.exit

plugin_unload.exit:                               ; preds = %12, %7, %5
  %.0 = phi i32 [ %spec.select, %5 ], [ 0, %7 ], [ 0, %12 ]
  %14 = getelementptr inbounds nuw i8, ptr %0, i64 16
  tail call void @slurm_xfree(ptr noundef nonnull %14) #10
  call void @slurm_xfree(ptr noundef nonnull %2) #10
  ret i32 %.0
}